target datalayout = "e-m:e-p270:32:32-p271:32:32-p272:64:64-i64:64-i128:128-f80:128-n8:16:32:64-S128"
target triple = "x86_64-pc-linux-gnu"

%struct.code = type { i8, i8, i16 }
%struct.z_stream_s = type { ptr, i32, i64, ptr, i32, i64, ptr, ptr, ptr, ptr, ptr, i32, i64, i64 }
%struct.inflate_state = type { ptr, i32, i32, i32, i32, i32, i32, i64, i64, ptr, i32, i32, i32, i32, ptr, i64, i32, i32, i32, i32, ptr, ptr, i32, i32, i32, i32, i32, i32, ptr, [320 x i16], [288 x i16], [1444 x %struct.code], i32, i32, i32 }

@.str = private unnamed_addr constant [15 x i8] c"1.3.1.1-motley\00", align 1

; Function Attrs: nounwind uwtable
define i32 @inflateInit2_(ptr noundef %0, i32 noundef %1, ptr noundef %2, i32 noundef %3) #0 {
  %5 = alloca i32, align 4
  %6 = alloca ptr, align 8
  %7 = alloca i32, align 4
  %8 = alloca ptr, align 8
  %9 = alloca i32, align 4
  %10 = alloca i32, align 4
  %11 = alloca ptr, align 8
  %12 = alloca i32, align 4
  store ptr %0, ptr %6, align 8, !tbaa !3
  store i32 %1, ptr %7, align 4, !tbaa !43
  store ptr %2, ptr %8, align 8, !tbaa !47
  store i32 %3, ptr %9, align 4, !tbaa !43
  call void @llvm.lifetime.start.p0(i64 4, ptr %10) #4
  call void @llvm.lifetime.start.p0(i64 8, ptr %11) #4
  %13 = load ptr, ptr %8, align 8, !tbaa !47
  %14 = icmp eq ptr %13, null
  br i1 %14, label %26, label %15

15:                                               ; preds = %4
  %16 = load ptr, ptr %8, align 8, !tbaa !47
  %17 = getelementptr inbounds i8, ptr %16, i64 0
  %18 = load i8, ptr %17, align 1, !tbaa !48
  %19 = sext i8 %18 to i32
  %20 = load i8, ptr @.str, align 1, !tbaa !48
  %21 = sext i8 %20 to i32
  %22 = icmp ne i32 %19, %21
  br i1 %22, label %26, label %23

23:                                               ; preds = %15
  %24 = load i32, ptr %9, align 4, !tbaa !43
  %25 = icmp ne i32 %24, 112
  br i1 %25, label %26, label %27

26:                                               ; preds = %23, %15, %4
  store i32 -6, ptr %5, align 4
  store i32 1, ptr %12, align 4
  br label %90

27:                                               ; preds = %23
  %28 = load ptr, ptr %6, align 8, !tbaa !3
  %29 = icmp eq ptr %28, null
  br i1 %29, label %30, label %31

30:                                               ; preds = %27
  store i32 -2, ptr %5, align 4
  store i32 1, ptr %12, align 4
  br label %90

31:                                               ; preds = %27
  %32 = load ptr, ptr %6, align 8, !tbaa !3
  %33 = getelementptr inbounds nuw %struct.z_stream_s, ptr %32, i32 0, i32 6
  store ptr null, ptr %33, align 8, !tbaa !21
  %34 = load ptr, ptr %6, align 8, !tbaa !3
  %35 = getelementptr inbounds nuw %struct.z_stream_s, ptr %34, i32 0, i32 8
  %36 = load ptr, ptr %35, align 8, !tbaa !37
  %37 = icmp eq ptr %36, null
  br i1 %37, label %38, label %43

38:                                               ; preds = %31
  %39 = load ptr, ptr %6, align 8, !tbaa !3
  %40 = getelementptr inbounds nuw %struct.z_stream_s, ptr %39, i32 0, i32 8
  store ptr @zcalloc, ptr %40, align 8, !tbaa !37
  %41 = load ptr, ptr %6, align 8, !tbaa !3
  %42 = getelementptr inbounds nuw %struct.z_stream_s, ptr %41, i32 0, i32 10
  store ptr null, ptr %42, align 8, !tbaa !46
  br label %43

43:                                               ; preds = %38, %31
  %44 = load ptr, ptr %6, align 8, !tbaa !3
  %45 = getelementptr inbounds nuw %struct.z_stream_s, ptr %44, i32 0, i32 9
  %46 = load ptr, ptr %45, align 8, !tbaa !38
  %47 = icmp eq ptr %46, null
  br i1 %47, label %48, label %51

48:                                               ; preds = %43
  %49 = load ptr, ptr %6, align 8, !tbaa !3
  %50 = getelementptr inbounds nuw %struct.z_stream_s, ptr %49, i32 0, i32 9
  store ptr @zcfree, ptr %50, align 8, !tbaa !38
  br label %51

51:                                               ; preds = %48, %43
  %52 = load ptr, ptr %6, align 8, !tbaa !3
  %53 = getelementptr inbounds nuw %struct.z_stream_s, ptr %52, i32 0, i32 8
  %54 = load ptr, ptr %53, align 8, !tbaa !37
  %55 = load ptr, ptr %6, align 8, !tbaa !3
  %56 = getelementptr inbounds nuw %struct.z_stream_s, ptr %55, i32 0, i32 10
  %57 = load ptr, ptr %56, align 8, !tbaa !46
  %58 = call ptr %54(ptr noundef %57, i32 noundef 1, i32 noundef 7160)
  store ptr %58, ptr %11, align 8, !tbaa !14
  %59 = load ptr, ptr %11, align 8, !tbaa !14
  %60 = icmp eq ptr %59, null
  br i1 %60, label %61, label %62

61:                                               ; preds = %51
  store i32 -4, ptr %5, align 4
  store i32 1, ptr %12, align 4
  br label %90

62:                                               ; preds = %51
  %63 = load ptr, ptr %11, align 8, !tbaa !14
  %64 = load ptr, ptr %6, align 8, !tbaa !3
  %65 = getelementptr inbounds nuw %struct.z_stream_s, ptr %64, i32 0, i32 7
  store ptr %63, ptr %65, align 8, !tbaa !8
  %66 = load ptr, ptr %6, align 8, !tbaa !3
  %67 = load ptr, ptr %11, align 8, !tbaa !14
  %68 = getelementptr inbounds nuw %struct.inflate_state, ptr %67, i32 0, i32 0
  store ptr %66, ptr %68, align 8, !tbaa !39
  %69 = load ptr, ptr %11, align 8, !tbaa !14
  %70 = getelementptr inbounds nuw %struct.inflate_state, ptr %69, i32 0, i32 14
  store ptr null, ptr %70, align 8, !tbaa !44
  %71 = load ptr, ptr %11, align 8, !tbaa !14
  %72 = getelementptr inbounds nuw %struct.inflate_state, ptr %71, i32 0, i32 1
  store i32 16180, ptr %72, align 8, !tbaa !24
  %73 = load ptr, ptr %6, align 8, !tbaa !3
  %74 = load i32, ptr %7, align 4, !tbaa !43
  %75 = call i32 @inflateReset2(ptr noundef %73, i32 noundef %74)
  store i32 %75, ptr %10, align 4, !tbaa !43
  %76 = load i32, ptr %10, align 4, !tbaa !43
  %77 = icmp ne i32 %76, 0
  br i1 %77, label %78, label %88

78:                                               ; preds = %62
  %79 = load ptr, ptr %6, align 8, !tbaa !3
  %80 = getelementptr inbounds nuw %struct.z_stream_s, ptr %79, i32 0, i32 9
  %81 = load ptr, ptr %80, align 8, !tbaa !38
  %82 = load ptr, ptr %6, align 8, !tbaa !3
  %83 = getelementptr inbounds nuw %struct.z_stream_s, ptr %82, i32 0, i32 10
  %84 = load ptr, ptr %83, align 8, !tbaa !46
  %85 = load ptr, ptr %11, align 8, !tbaa !14
  call void %81(ptr noundef %84, ptr noundef %85)
  %86 = load ptr, ptr %6, align 8, !tbaa !3
  %87 = getelementptr inbounds nuw %struct.z_stream_s, ptr %86, i32 0, i32 7
  store ptr null, ptr %87, align 8, !tbaa !8
  br label %88

88:                                               ; preds = %78, %62
  %89 = load i32, ptr %10, align 4, !tbaa !43
  store i32 %89, ptr %5, align 4
  store i32 1, ptr %12, align 4
  br label %90

90:                                               ; preds = %88, %61, %30, %26
  call void @llvm.lifetime.end.p0(i64 8, ptr %11) #4
  call void @llvm.lifetime.end.p0(i64 4, ptr %10) #4
  %91 = load i32, ptr %5, align 4
  ret i32 %91
}