; Function Attrs: nounwind uwtable
define range(i32 -6, 1) i32 @inflateInit2_(ptr noundef %0, i32 noundef %1, ptr noundef readonly captures(address_is_null) %2, i32 noundef %3) local_unnamed_addr #2 {
  %5 = icmp eq ptr %2, null
  br i1 %5, label %38, label %6

6:                                                ; preds = %4
  %7 = load i8, ptr %2, align 1, !tbaa !41
  %8 = icmp ne i8 %7, 49
  %9 = icmp ne i32 %3, 112
  %or.cond = or i1 %9, %8
  br i1 %or.cond, label %38, label %10

10:                                               ; preds = %6
  %11 = icmp eq ptr %0, null
  br i1 %11, label %38, label %12

12:                                               ; preds = %10
  %13 = getelementptr inbounds nuw i8, ptr %0, i64 48
  store ptr null, ptr %13, align 8, !tbaa !42
  %14 = getelementptr inbounds nuw i8, ptr %0, i64 64
  %15 = load ptr, ptr %14, align 8, !tbaa !3
  %16 = icmp eq ptr %15, null
  br i1 %16, label %17, label %19

17:                                               ; preds = %12
  store ptr @zcalloc, ptr %14, align 8, !tbaa !3
  %18 = getelementptr inbounds nuw i8, ptr %0, i64 80
  store ptr null, ptr %18, align 8, !tbaa !40
  br label %19

19:                                               ; preds = %17, %12
  %20 = phi ptr [ @zcalloc, %17 ], [ %15, %12 ]
  %21 = getelementptr inbounds nuw i8, ptr %0, i64 72
  %22 = load ptr, ptr %21, align 8, !tbaa !12
  %23 = icmp eq ptr %22, null
  br i1 %23, label %24, label %25

24:                                               ; preds = %19
  store ptr @zcfree, ptr %21, align 8, !tbaa !12
  br label %25

25:                                               ; preds = %24, %19
  %26 = getelementptr inbounds nuw i8, ptr %0, i64 80
  %27 = load ptr, ptr %26, align 8, !tbaa !40
  %28 = tail call ptr %20(ptr noundef %27, i32 noundef 1, i32 noundef 7160) #9
  %29 = icmp eq ptr %28, null
  br i1 %29, label %38, label %30

30:                                               ; preds = %25
  %31 = getelementptr inbounds nuw i8, ptr %0, i64 56
  store ptr %28, ptr %31, align 8, !tbaa !13
  store ptr %0, ptr %28, align 8, !tbaa !14
  %32 = getelementptr inbounds nuw i8, ptr %28, i64 72
  store ptr null, ptr %32, align 8, !tbaa !38
  %33 = getelementptr inbounds nuw i8, ptr %28, i64 8
  store i32 16180, ptr %33, align 8, !tbaa !18
  %34 = tail call i32 @inflateReset2(ptr noundef nonnull %0, i32 noundef %1)
  %.not = icmp eq i32 %34, 0
  br i1 %.not, label %38, label %35

35:                                               ; preds = %30
  %36 = load ptr, ptr %21, align 8, !tbaa !12
  %37 = load ptr, ptr %26, align 8, !tbaa !40
  tail call void %36(ptr noundef %37, ptr noundef nonnull %28) #9
  store ptr null, ptr %31, align 8, !tbaa !13
  br label %38

38:                                               ; preds = %30, %35, %25, %10, %4, %6
  %.0 = phi i32 [ -6, %6 ], [ -6, %4 ], [ -2, %10 ], [ -4, %25 ], [ %34, %35 ], [ 0, %30 ]
  ret i32 %.0
}